; ModuleID = '5/1148.c'
source_filename = "5/1148.c"
target datalayout = "e-m:e-p270:32:32-p271:32:32-p272:64:64-i64:64-f80:128-n8:16:32:64-S128"
target triple = "x86_64-pc-linux-gnu"

@.str = private unnamed_addr constant [4 x i8] c"%lf\00", align 1
@.str.1 = private unnamed_addr constant [5 x i8] c"%s%s\00", align 1
@.str.2 = private unnamed_addr constant [6 x i8] c"error\00", align 1
@.str.3 = private unnamed_addr constant [4 x i8] c"yes\00", align 1
@.str.4 = private unnamed_addr constant [3 x i8] c"no\00", align 1

; Function Attrs: noinline nounwind uwtable
define dso_local i32 @main() #0 {
  %1 = alloca i32, align 4
  %2 = alloca double, align 8
  %3 = alloca double, align 8
  %4 = alloca i32, align 4
  %5 = alloca i32, align 4
  %6 = alloca i32, align 4
  %7 = alloca i32, align 4
  %8 = alloca i32, align 4
  %9 = alloca i32, align 4
  %10 = alloca [1000 x i8], align 16
  %11 = alloca [1000 x i8], align 16
  store i32 0, i32* %1, align 4
  store i32 0, i32* %4, align 4
  store i32 0, i32* %5, align 4
  %12 = call i32 (i8*, ...) @__isoc99_scanf(i8* getelementptr inbounds ([4 x i8], [4 x i8]* @.str, i64 0, i64 0), double* %2)
  %13 = getelementptr inbounds [1000 x i8], [1000 x i8]* %10, i64 0, i64 0
  %14 = getelementptr inbounds [1000 x i8], [1000 x i8]* %11, i64 0, i64 0
  %15 = call i32 (i8*, ...) @__isoc99_scanf(i8* getelementptr inbounds ([5 x i8], [5 x i8]* @.str.1, i64 0, i64 0), i8* %13, i8* %14)
  %16 = getelementptr inbounds [1000 x i8], [1000 x i8]* %10, i64 0, i64 0
  %17 = call i64 @strlen(i8* %16) #3
  %18 = trunc i64 %17 to i32
  store i32 %18, i32* %8, align 4
  %19 = getelementptr inbounds [1000 x i8], [1000 x i8]* %11, i64 0, i64 0
  %20 = call i64 @strlen(i8* %19) #3
  %21 = trunc i64 %20 to i32
  store i32 %21, i32* %9, align 4
  store i32 0, i32* %6, align 4
  br label %22

22:                                               ; preds = %56, %0
  %23 = load i32, i32* %6, align 4
  %24 = load i32, i32* %8, align 4
  %25 = icmp slt i32 %23, %24
  br i1 %25, label %26, label %59

26:                                               ; preds = %22
  %27 = load i32, i32* %6, align 4
  %28 = sext i32 %27 to i64
  %29 = getelementptr inbounds [1000 x i8], [1000 x i8]* %10, i64 0, i64 %28
  %30 = load i8, i8* %29, align 1
  %31 = sext i8 %30 to i32
  %32 = icmp ne i32 %31, 65
  br i1 %32, label %33, label %55

33:                                               ; preds = %26
  %34 = load i32, i32* %6, align 4
  %35 = sext i32 %34 to i64
  %36 = getelementptr inbounds [1000 x i8], [1000 x i8]* %10, i64 0, i64 %35
  %37 = load i8, i8* %36, align 1
  %38 = sext i8 %37 to i32
  %39 = icmp ne i32 %38, 84
  br i1 %39, label %40, label %55

40:                                               ; preds = %33
  %41 = load i32, i32* %6, align 4
  %42 = sext i32 %41 to i64
  %43 = getelementptr inbounds [1000 x i8], [1000 x i8]* %10, i64 0, i64 %42
  %44 = load i8, i8* %43, align 1
  %45 = sext i8 %44 to i32
  %46 = icmp ne i32 %45, 67
  br i1 %46, label %47, label %55

47:                                               ; preds = %40
  %48 = load i32, i32* %6, align 4
  %49 = sext i32 %48 to i64
  %50 = getelementptr inbounds [1000 x i8], [1000 x i8]* %10, i64 0, i64 %49
  %51 = load i8, i8* %50, align 1
  %52 = sext i8 %51 to i32
  %53 = icmp ne i32 %52, 71
  br i1 %53, label %54, label %55

54:                                               ; preds = %47
  store i32 1, i32* %4, align 4
  br label %55

55:                                               ; preds = %54, %47, %40, %33, %26
  br label %56

56:                                               ; preds = %55
  %57 = load i32, i32* %6, align 4
  %58 = add nsw i32 %57, 1
  store i32 %58, i32* %6, align 4
  br label %22

59:                                               ; preds = %22
  store i32 0, i32* %6, align 4
  br label %60

60:                                               ; preds = %94, %59
  %61 = load i32, i32* %6, align 4
  %62 = load i32, i32* %9, align 4
  %63 = icmp slt i32 %61, %62
  br i1 %63, label %64, label %97

64:                                               ; preds = %60
  %65 = load i32, i32* %6, align 4
  %66 = sext i32 %65 to i64
  %67 = getelementptr inbounds [1000 x i8], [1000 x i8]* %11, i64 0, i64 %66
  %68 = load i8, i8* %67, align 1
  %69 = sext i8 %68 to i32
  %70 = icmp ne i32 %69, 65
  br i1 %70, label %71, label %93

71:                                               ; preds = %64
  %72 = load i32, i32* %6, align 4
  %73 = sext i32 %72 to i64
  %74 = getelementptr inbounds [1000 x i8], [1000 x i8]* %11, i64 0, i64 %73
  %75 = load i8, i8* %74, align 1
  %76 = sext i8 %75 to i32
  %77 = icmp ne i32 %76, 84
  br i1 %77, label %78, label %93

78:                                               ; preds = %71
  %79 = load i32, i32* %6, align 4
  %80 = sext i32 %79 to i64
  %81 = getelementptr inbounds [1000 x i8], [1000 x i8]* %11, i64 0, i64 %80
  %82 = load i8, i8* %81, align 1
  %83 = sext i8 %82 to i32
  %84 = icmp ne i32 %83, 67
  br i1 %84, label %85, label %93

85:                                               ; preds = %78
  %86 = load i32, i32* %6, align 4
  %87 = sext i32 %86 to i64
  %88 = getelementptr inbounds [1000 x i8], [1000 x i8]* %11, i64 0, i64 %87
  %89 = load i8, i8* %88, align 1
  %90 = sext i8 %89 to i32
  %91 = icmp ne i32 %90, 71
  br i1 %91, label %92, label %93

92:                                               ; preds = %85
  store i32 1, i32* %5, align 4
  br label %93

93:                                               ; preds = %92, %85, %78, %71, %64
  br label %94

94:                                               ; preds = %93
  %95 = load i32, i32* %6, align 4
  %96 = add nsw i32 %95, 1
  store i32 %96, i32* %6, align 4
  br label %60

97:                                               ; preds = %60
  %98 = load i32, i32* %4, align 4
  %99 = icmp eq i32 %98, 1
  br i1 %99, label %107, label %100

100:                                              ; preds = %97
  %101 = load i32, i32* %5, align 4
  %102 = icmp eq i32 %101, 1
  br i1 %102, label %107, label %103

103:                                              ; preds = %100
  %104 = load i32, i32* %8, align 4
  %105 = load i32, i32* %9, align 4
  %106 = icmp ne i32 %104, %105
  br i1 %106, label %107, label %109

107:                                              ; preds = %103, %100, %97
  %108 = call i32 (i8*, ...) @printf(i8* getelementptr inbounds ([6 x i8], [6 x i8]* @.str.2, i64 0, i64 0))
  br label %148

109:                                              ; preds = %103
  store i32 0, i32* %6, align 4
  store i32 0, i32* %7, align 4
  br label %110

110:                                              ; preds = %130, %109
  %111 = load i32, i32* %6, align 4
  %112 = load i32, i32* %8, align 4
  %113 = icmp slt i32 %111, %112
  br i1 %113, label %114, label %133

114:                                              ; preds = %110
  %115 = load i32, i32* %6, align 4
  %116 = sext i32 %115 to i64
  %117 = getelementptr inbounds [1000 x i8], [1000 x i8]* %10, i64 0, i64 %116
  %118 = load i8, i8* %117, align 1
  %119 = sext i8 %118 to i32
  %120 = load i32, i32* %6, align 4
  %121 = sext i32 %120 to i64
  %122 = getelementptr inbounds [1000 x i8], [1000 x i8]* %11, i64 0, i64 %121
  %123 = load i8, i8* %122, align 1
  %124 = sext i8 %123 to i32
  %125 = icmp eq i32 %119, %124
  br i1 %125, label %126, label %129

126:                                              ; preds = %114
  %127 = load i32, i32* %7, align 4
  %128 = add nsw i32 %127, 1
  store i32 %128, i32* %7, align 4
  br label %129

129:                                              ; preds = %126, %114
  br label %130

130:                                              ; preds = %129
  %131 = load i32, i32* %6, align 4
  %132 = add nsw i32 %131, 1
  store i32 %132, i32* %6, align 4
  br label %110

133:                                              ; preds = %110
  %134 = load i32, i32* %7, align 4
  %135 = sitofp i32 %134 to double
  %136 = fmul double 1.000000e+00, %135
  %137 = load i32, i32* %8, align 4
  %138 = sitofp i32 %137 to double
  %139 = fdiv double %136, %138
  store double %139, double* %3, align 8
  %140 = load double, double* %3, align 8
  %141 = load double, double* %2, align 8
  %142 = fcmp oge double %140, %141
  br i1 %142, label %143, label %145

143:                                              ; preds = %133
  %144 = call i32 (i8*, ...) @printf(i8* getelementptr inbounds ([4 x i8], [4 x i8]* @.str.3, i64 0, i64 0))
  br label %147

145:                                              ; preds = %133
  %146 = call i32 (i8*, ...) @printf(i8* getelementptr inbounds ([3 x i8], [3 x i8]* @.str.4, i64 0, i64 0))
  br label %147

147:                                              ; preds = %145, %143
  br label %148

148:                                              ; preds = %147, %107
  ret i32 0
}

declare dso_local i32 @__isoc99_scanf(i8*, ...) #1

; Function Attrs: nounwind readonly
declare dso_local i64 @strlen(i8*) #2

declare dso_local i32 @printf(i8*, ...) #1


!llvm.module.flags = !{!0}
!llvm.ident = !{!1}

!0 = !{i32 1, !"wchar_size", i32 4}
!1 = !{!"clang version 10.0.0-4ubuntu1 "}
